target datalayout = "e-m:e-p270:32:32-p271:32:32-p272:64:64-i64:64-i128:128-f80:128-n8:16:32:64-S128"
target triple = "x86_64-unknown-linux-gnu"

%"struct.std::atomic.12" = type { %"struct.std::__atomic_base.13" }
%"struct.std::__atomic_base.13" = type { i64 }
%"class.facebook::velox::memory::Allocation" = type <{ ptr, %"class.std::vector", i32, [4 x i8] }>
%"class.std::vector" = type { %"struct.std::_Vector_base" }
%"struct.std::_Vector_base" = type { %"struct.std::_Vector_base<facebook::velox::memory::Allocation::PageRun, std::allocator<facebook::velox::memory::Allocation::PageRun>>::_Vector_impl" }
%"struct.std::_Vector_base<facebook::velox::memory::Allocation::PageRun, std::allocator<facebook::velox::memory::Allocation::PageRun>>::_Vector_impl" = type { %"struct.std::_Vector_base<facebook::velox::memory::Allocation::PageRun, std::allocator<facebook::velox::memory::Allocation::PageRun>>::_Vector_impl_data" }
%"struct.std::_Vector_base<facebook::velox::memory::Allocation::PageRun, std::allocator<facebook::velox::memory::Allocation::PageRun>>::_Vector_impl_data" = type { ptr, ptr, ptr }
%"struct.std::atomic" = type { %"struct.std::__atomic_base" }
%"struct.std::__atomic_base" = type { i32 }
%"class.facebook::velox::cache::AsyncDataCache" = type <{ %"class.facebook::velox::memory::Cache", ptr, %"class.std::unique_ptr.16", %"class.std::vector.24", %"struct.std::atomic", [4 x i8], %"struct.std::atomic.12", %"struct.std::atomic.12", %"struct.std::atomic.12", %"struct.std::atomic.12", i64, %"struct.facebook::velox::cache::CacheStats", %"class.std::function", i32, %"struct.std::atomic.29", [2 x i8], %"struct.std::atomic", [4 x i8] }>
%"class.facebook::velox::memory::Cache" = type { ptr }
%"class.std::unique_ptr.16" = type { %"struct.std::__uniq_ptr_data.17" }
%"struct.std::__uniq_ptr_data.17" = type { %"class.std::__uniq_ptr_impl.18" }
%"class.std::__uniq_ptr_impl.18" = type { %"class.std::tuple.19" }
%"class.std::tuple.19" = type { %"struct.std::_Tuple_impl.20" }
%"struct.std::_Tuple_impl.20" = type { %"struct.std::_Head_base.23" }
%"struct.std::_Head_base.23" = type { ptr }
%"class.std::vector.24" = type { %"struct.std::_Vector_base.25" }
%"struct.std::_Vector_base.25" = type { %"struct.std::_Vector_base<std::unique_ptr<facebook::velox::cache::CacheShard>, std::allocator<std::unique_ptr<facebook::velox::cache::CacheShard>>>::_Vector_impl" }
%"struct.std::_Vector_base<std::unique_ptr<facebook::velox::cache::CacheShard>, std::allocator<std::unique_ptr<facebook::velox::cache::CacheShard>>>::_Vector_impl" = type { %"struct.std::_Vector_base<std::unique_ptr<facebook::velox::cache::CacheShard>, std::allocator<std::unique_ptr<facebook::velox::cache::CacheShard>>>::_Vector_impl_data" }
%"struct.std::_Vector_base<std::unique_ptr<facebook::velox::cache::CacheShard>, std::allocator<std::unique_ptr<facebook::velox::cache::CacheShard>>>::_Vector_impl_data" = type { ptr, ptr, ptr }
%"struct.facebook::velox::cache::CacheStats" = type { i64, i64, i64, i64, i32, i32, i32, i32, i32, i64, i64, i64, i64, i64, i64, i64, i64, i64, i64, i64, %"class.std::shared_ptr" }
%"class.std::shared_ptr" = type { %"class.std::__shared_ptr" }
%"class.std::__shared_ptr" = type { ptr, %"class.std::__shared_count" }
%"class.std::__shared_count" = type { ptr }
%"class.std::function" = type { %"class.std::_Function_base", ptr }
%"class.std::_Function_base" = type { %"union.std::_Any_data", ptr }
%"union.std::_Any_data" = type { %"union.std::_Nocopy_types" }
%"union.std::_Nocopy_types" = type { { i64, i64 } }
%"struct.std::atomic.29" = type { %"struct.std::__atomic_base.30" }
%"struct.std::__atomic_base.30" = type { i16 }

; Function Attrs: mustprogress nounwind uwtable
define linkonce_odr noundef i64 @_ZN8facebook5velox4bits7roundUpImmEET_S3_T0_(i64 noundef %value, i64 noundef %factor) #1 comdat {
entry:
  %value.addr = alloca i64, align 8
  %factor.addr = alloca i64, align 8
  store i64 %value, ptr %value.addr, align 8
  store i64 %factor, ptr %factor.addr, align 8
  %0 = load i64, ptr %value.addr, align 8
  %1 = load i64, ptr %factor.addr, align 8
  %sub = sub i64 %1, 1
  %add = add i64 %0, %sub
  %2 = load i64, ptr %factor.addr, align 8
  %div = udiv i64 %add, %2
  %3 = load i64, ptr %factor.addr, align 8
  %mul = mul i64 %div, %3
  ret i64 %mul
}

; Function Attrs: mustprogress nounwind uwtable
define linkonce_odr noundef i64 @_ZNK8facebook5velox6memory10Allocation8numPagesEv(ptr noundef nonnull align 8 dereferenceable(36) %this) #1 comdat align 2 {
entry:
  %this.addr = alloca ptr, align 8
  store ptr %this, ptr %this.addr, align 8
  %this1 = load ptr, ptr %this.addr, align 8
  %numPages_ = getelementptr inbounds %"class.facebook::velox::memory::Allocation", ptr %this1, i32 0, i32 2
  %0 = load i32, ptr %numPages_, align 8
  %conv = sext i32 %0 to i64
  ret i64 %conv
}

; Function Attrs: mustprogress uwtable
define noundef zeroext i1 @_ZNK8facebook5velox5cache14AsyncDataCache14canTryAllocateEiRKNS0_6memory10AllocationE(ptr noundef nonnull align 8 dereferenceable(300) %this, i32 noundef %numPages, ptr noundef nonnull align 8 dereferenceable(36) %acquired) #0 align 2 {
entry:
  %bytes.addr.i = alloca i64, align 8
  %retval = alloca i1, align 1
  %this.addr = alloca ptr, align 8
  %numPages.addr = alloca i32, align 4
  %acquired.addr = alloca ptr, align 8
  store ptr %this, ptr %this.addr, align 8
  store i32 %numPages, ptr %numPages.addr, align 4
  store ptr %acquired, ptr %acquired.addr, align 8
  %this1 = load ptr, ptr %this.addr, align 8
  %0 = load i32, ptr %numPages.addr, align 4
  %conv = sext i32 %0 to i64
  %1 = load ptr, ptr %acquired.addr, align 8
  %call = call noundef i64 @_ZNK8facebook5velox6memory10Allocation8numPagesEv(ptr noundef nonnull align 8 dereferenceable(36) %1)
  %cmp = icmp ule i64 %conv, %call
  br i1 %cmp, label %if.then, label %if.end

if.then:                                          ; preds = %entry
  store i1 true, ptr %retval, align 1
  br label %return

if.end:                                           ; preds = %entry
  %2 = load i32, ptr %numPages.addr, align 4
  %conv2 = sext i32 %2 to i64
  %3 = load ptr, ptr %acquired.addr, align 8
  %call3 = call noundef i64 @_ZNK8facebook5velox6memory10Allocation8numPagesEv(ptr noundef nonnull align 8 dereferenceable(36) %3)
  %sub = sub i64 %conv2, %call3
  %allocator_ = getelementptr inbounds %"class.facebook::velox::cache::AsyncDataCache", ptr %this1, i32 0, i32 1
  %4 = load ptr, ptr %allocator_, align 8
  %vtable = load ptr, ptr %4, align 8
  %vfn = getelementptr inbounds ptr, ptr %vtable, i64 4
  %5 = load ptr, ptr %vfn, align 8
  %call4 = call noundef i64 %5(ptr noundef nonnull align 8 dereferenceable(880) %4)
  store i64 %call4, ptr %bytes.addr.i, align 8
  %6 = load i64, ptr %bytes.addr.i, align 8
  %call.i = call noundef i64 @_ZN8facebook5velox4bits7roundUpImmEET_S3_T0_(i64 noundef %6, i64 noundef 4096)
  %div.i = udiv i64 %call.i, 4096
  %allocator_6 = getelementptr inbounds %"class.facebook::velox::cache::AsyncDataCache", ptr %this1, i32 0, i32 1
  %7 = load ptr, ptr %allocator_6, align 8
  %vtable7 = load ptr, ptr %7, align 8
  %vfn8 = getelementptr inbounds ptr, ptr %vtable7, i64 13
  %8 = load ptr, ptr %vfn8, align 8
  %call9 = call noundef i64 %8(ptr noundef nonnull align 8 dereferenceable(880) %7)
  %sub10 = sub i64 %div.i, %call9
  %cmp11 = icmp ule i64 %sub, %sub10
  store i1 %cmp11, ptr %retval, align 1
  br label %return

return:                                           ; preds = %if.end, %if.then
  %9 = load i1, ptr %retval, align 1
  ret i1 %9
}