; Function Attrs: mustprogress uwtable
define noundef zeroext i1 @_ZNK8facebook5velox5cache14AsyncDataCache14canTryAllocateEiRKNS0_6memory10AllocationE(ptr nocapture noundef nonnull readonly align 8 dereferenceable(300) %this, i32 noundef %numPages, ptr nocapture noundef nonnull readonly align 8 dereferenceable(36) %acquired) local_unnamed_addr #3 align 2 {
entry:
  %numPages_.i = getelementptr inbounds i8, ptr %acquired, i64 32
  %0 = load i32, ptr %numPages_.i, align 8
  %cmp.not = icmp ult i32 %0, %numPages
  br i1 %cmp.not, label %if.end, label %return

if.end:                                           ; preds = %entry
  %conv = sext i32 %numPages to i64
  %conv.i = sext i32 %0 to i64
  %sub = sub nsw i64 %conv, %conv.i
  %allocator_ = getelementptr inbounds i8, ptr %this, i64 8
  %1 = load ptr, ptr %allocator_, align 8
  %vtable = load ptr, ptr %1, align 8
  %vfn = getelementptr inbounds i8, ptr %vtable, i64 32
  %2 = load ptr, ptr %vfn, align 8
  %call4 = tail call noundef i64 %2(ptr noundef nonnull align 8 dereferenceable(880) %1)
  %add.i = add i64 %call4, 4095
  %div.i3 = lshr i64 %add.i, 12
  %3 = load ptr, ptr %allocator_, align 8
  %vtable7 = load ptr, ptr %3, align 8
  %vfn8 = getelementptr inbounds i8, ptr %vtable7, i64 104
  %4 = load ptr, ptr %vfn8, align 8
  %call9 = tail call noundef i64 %4(ptr noundef nonnull align 8 dereferenceable(880) %3)
  %sub10 = sub i64 %div.i3, %call9
  %cmp11 = icmp ule i64 %sub, %sub10
  br label %return

return:                                           ; preds = %entry, %if.end
  %retval.0 = phi i1 [ %cmp11, %if.end ], [ true, %entry ]
  ret i1 %retval.0
}